Certificate:
    Data:
        Version: 3 (0x2)
        Serial Number:
            73:35:8c:07:57:01:9f:62:0e:02:af:d5:96:5c:55:51
        Signature Algorithm: sha256WithRSAEncryption
        Issuer: CN=Easy-RSA CA
        Validity
            Not Before: Nov 25 14:26:03 2019 GMT
            Not After : Nov  9 14:26:03 2022 GMT
        Subject: CN=client
        Subject Public Key Info:
            Public Key Algorithm: rsaEncryption
                RSA Public-Key: (2048 bit)
                Modulus:
                    00:af:2b:2f:1c:93:65:0e:17:42:42:01:e9:be:68:
                    6e:4a:06:7c:c2:33:f6:fc:d4:3b:48:60:5e:8b:b5:
                    e3:18:55:46:1a:2e:0a:20:d1:f2:de:be:2d:04:13:
                    f7:c0:19:87:10:33:07:79:ae:b4:33:e7:68:df:7a:
                    ce:70:c3:75:91:2b:c4:1c:b9:6c:f1:95:06:23:8a:
                    9b:4b:ee:cc:26:4d:28:49:69:3e:d5:bc:7c:13:85:
                    5b:e4:ad:ac:4b:51:39:01:24:82:34:11:da:ba:62:
                    aa:9a:cc:4c:34:5f:18:fd:4b:3f:fb:b2:df:9f:d7:
                    45:fe:28:11:8e:16:30:63:72:0e:76:c4:9b:2c:cd:
                    af:1b:cd:74:03:7f:25:91:bb:c3:d8:93:aa:62:aa:
                    6c:cb:7e:f1:b4:e1:ef:d3:7b:04:38:3b:73:9b:a6:
                    d5:ce:d2:57:57:f4:2d:e1:4e:f2:91:6c:29:b5:51:
                    7b:dc:28:ad:6b:e1:fe:ac:fb:ad:67:59:db:58:0f:
                    b2:ac:ab:83:b0:67:61:f3:2e:cb:35:6c:d8:a0:56:
                    27:aa:74:46:d2:7e:27:1f:8c:24:1a:43:03:4b:45:
                    6e:ee:c0:ee:e4:99:cd:62:71:6b:4d:ef:24:5b:ea:
                    44:23:cb:48:8e:00:4a:b9:9b:1d:bb:d5:33:70:bc:
                    78:fb
                Exponent: 65537 (0x10001)
        X509v3 extensions:
            X509v3 Basic Constraints: 
                CA:FALSE
            X509v3 Subject Key Identifier: 
                25:BA:4B:0B:F6:CB:BF:73:FE:B0:BC:CC:83:9D:7C:2A:C1:B8:57:89
            X509v3 Authority Key Identifier: 
                keyid:F2:2D:1C:50:18:56:B0:FE:3F:16:14:8F:2B:A0:66:DA:08:FB:3F:0B
                DirName:/CN=Easy-RSA CA
                serial:38:81:52:A6:33:2D:CA:AE:E2:1A:DB:CA:54:34:CC:3E:5D:41:24:ED

            X509v3 Extended Key Usage: 
                TLS Web Client Authentication
            X509v3 Key Usage: 
                Digital Signature
    Signature Algorithm: sha256WithRSAEncryption
         7b:8f:50:b8:fd:fc:a4:57:05:2c:03:c1:39:d0:ce:50:f0:0b:
         84:8f:4e:b6:e5:b9:e3:2e:7d:35:eb:62:39:6c:e4:b4:3e:b8:
         fd:40:85:d4:89:1d:0c:d5:d5:b8:3a:87:55:f0:a6:d0:10:a9:
         ca:03:33:12:30:20:25:8d:55:db:d8:60:65:ad:4b:ea:1b:38:
         68:11:ca:76:af:b5:10:8e:8b:90:4b:10:ed:50:13:49:83:ad:
         3a:08:6a:c6:49:13:2e:34:f1:22:93:2f:a5:13:8b:b6:e1:dc:
         49:98:6c:86:fe:d0:f5:b6:02:9a:db:d5:00:4c:83:0d:fd:43:
         16:4d:b6:07:7f:aa:ba:79:eb:94:5c:90:84:e0:d3:38:61:67:
         ac:94:79:60:19:13:50:a9:33:12:7e:b7:ab:82:23:25:35:71:
         19:df:60:4e:06:8c:bd:b1:ed:4f:88:35:36:ea:ca:32:7c:07:
         0a:76:0e:cf:ea:04:ed:15:bd:fb:8c:6b:42:55:ad:d7:54:61:
         07:95:23:7d:32:f0:d0:c7:06:95:60:d6:12:3e:e6:48:d1:6c:
         87:0c:5b:25:0a:7c:26:c5:51:63:9f:0a:75:3d:74:10:97:70:
         df:e2:b5:5a:96:98:a5:1d:2d:af:e5:a0:ca:22:d9:3b:9a:91:
         80:0a:31:2d
-----BEGIN CERTIFICATE-----
MIIDVDCCAjygAwIBAgIQczWMB1cBn2IOAq/VllxVUTANBgkqhkiG9w0BAQsFADAW
MRQwEgYDVQQDDAtFYXN5LVJTQSBDQTAeFw0xOTExMjUxNDI2MDNaFw0yMjExMDkx
NDI2MDNaMBExDzANBgNVBAMMBmNsaWVudDCCASIwDQYJKoZIhvcNAQEBBQADggEP
ADCCAQoCggEBAK8rLxyTZQ4XQkIB6b5obkoGfMIz9vzUO0hgXou14xhVRhouCiDR
8t6+LQQT98AZhxAzB3mutDPnaN96znDDdZErxBy5bPGVBiOKm0vuzCZNKElpPtW8
fBOFW+StrEtROQEkgjQR2rpiqprMTDRfGP1LP/uy35/XRf4oEY4WMGNyDnbEmyzN
rxvNdAN/JZG7w9iTqmKqbMt+8bTh79N7BDg7c5um1c7SV1f0LeFO8pFsKbVRe9wo
rWvh/qz7rWdZ21gPsqyrg7BnYfMuyzVs2KBWJ6p0RtJ+Jx+MJBpDA0tFbu7A7uSZ
zWJxa03vJFvqRCPLSI4ASrmbHbvVM3C8ePsCAwEAAaOBojCBnzAJBgNVHRMEAjAA
MB0GA1UdDgQWBBQluksL9su/c/6wvMyDnXwqwbhXiTBRBgNVHSMESjBIgBTyLRxQ
GFaw/j8WFI8roGbaCPs/C6EapBgwFjEUMBIGA1UEAwwLRWFzeS1SU0EgQ0GCFDiB
UqYzLcqu4hrbylQ0zD5dQSTtMBMGA1UdJQQMMAoGCCsGAQUFBwMCMAsGA1UdDwQE
AwIHgDANBgkqhkiG9w0BAQsFAAOCAQEAe49QuP38pFcFLAPBOdDOUPALhI9OtuW5
4y59NetiOWzktD64/UCF1IkdDNXVuDqHVfCm0BCpygMzEjAgJY1V29hgZa1L6hs4
aBHKdq+1EI6LkEsQ7VATSYOtOghqxkkTLjTxIpMvpROLtuHcSZhshv7Q9bYCmtvV
AEyDDf1DFk22B3+qunnrlFyQhODTOGFnrJR5YBkTUKkzEn63q4IjJTVxGd9gTgaM
vbHtT4g1NurKMnwHCnYOz+oE7RW9+4xrQlWt11RhB5UjfTLw0McGlWDWEj7mSNFs
hwxbJQp8JsVRY58KdT10EJdw3+K1WpaYpR0tr+WgyiLZO5qRgAoxLQ==
-----END CERTIFICATE-----
